target datalayout = "e-m:e-p270:32:32-p271:32:32-p272:64:64-i64:64-i128:128-f80:128-n8:16:32:64-S128"
target triple = "x86_64-pc-linux-gnu"

%"class.nanogui::Color" = type { %"struct.nanogui::Array" }
%"struct.nanogui::Array" = type { [4 x float] }
%"class.nanogui::Widget.base" = type <{ %"class.nanogui::Object.base", [4 x i8], ptr, %"class.nanogui::ref", %"class.nanogui::ref.1", %"struct.nanogui::Array.2", %"struct.nanogui::Array.2", %"struct.nanogui::Array.2", %"class.std::__1::vector", i8, i8, i8, i8, [4 x i8], %"class.std::__1::basic_string", i32, float, i32 }>
%"class.nanogui::Object.base" = type <{ ptr, %"struct.std::__1::atomic" }>
%"struct.std::__1::atomic" = type { %"struct.std::__1::__atomic_base" }
%"struct.std::__1::__atomic_base" = type { %"struct.std::__1::__atomic_base.0" }
%"struct.std::__1::__atomic_base.0" = type { %"struct.std::__1::__cxx_atomic_impl" }
%"struct.std::__1::__cxx_atomic_impl" = type { %"struct.std::__1::__cxx_atomic_base_impl" }
%"struct.std::__1::__cxx_atomic_base_impl" = type { i32 }
%"class.nanogui::ref" = type { ptr }
%"class.nanogui::ref.1" = type { ptr }
%"struct.nanogui::Array.2" = type { [2 x i32] }
%"class.std::__1::vector" = type { ptr, ptr, %"class.std::__1::__compressed_pair" }
%"class.std::__1::__compressed_pair" = type { %"struct.std::__1::__compressed_pair_elem" }
%"struct.std::__1::__compressed_pair_elem" = type { ptr }
%"class.std::__1::basic_string" = type { %"class.std::__1::__compressed_pair.4" }
%"class.std::__1::__compressed_pair.4" = type { %"struct.std::__1::__compressed_pair_elem.5" }
%"struct.std::__1::__compressed_pair_elem.5" = type { %"struct.std::__1::basic_string<char>::__rep" }
%"struct.std::__1::basic_string<char>::__rep" = type { %union.anon }
%union.anon = type { %"struct.std::__1::basic_string<char>::__long" }
%"struct.std::__1::basic_string<char>::__long" = type { %struct.anon.6, i64, ptr }
%struct.anon.6 = type { i64 }
%"struct.nanogui::Array.40" = type { [2 x float] }
%"class.nanogui::Screen" = type { %"class.nanogui::Widget.base", ptr, ptr, [6 x ptr], i32, %"class.std::__1::vector", %"struct.nanogui::Array.2", float, i32, i32, %"struct.nanogui::Array.2", i8, ptr, double, i8, %"class.nanogui::Color", %"class.std::__1::basic_string", i8, i8, i8, i8, i8, i8, %"class.std::__1::function" }
%"class.std::__1::function" = type { %"class.std::__1::__function::__value_func" }
%"class.std::__1::__function::__value_func" = type { %"struct.std::__1::aligned_storage<24>::type", ptr, [8 x i8] }
%"struct.std::__1::aligned_storage<24>::type" = type { [32 x i8] }

; Function Attrs: mustprogress nounwind uwtable
define linkonce_odr dso_local void @_ZN7nanogui5ArrayIfLm2EEC2IiEERKNS0_IT_Lm2EEE(ptr noundef nonnull align 4 dereferenceable(8) %0, ptr noundef nonnull align 4 dereferenceable(8) %1) unnamed_addr #1 comdat align 2 {
  %3 = alloca ptr, align 8
  %4 = alloca ptr, align 8
  %5 = alloca i64, align 8
  store ptr %0, ptr %3, align 8
  store ptr %1, ptr %4, align 8
  %6 = load ptr, ptr %3, align 8
  store i64 0, ptr %5, align 8
  br label %7

7:                                                ; preds = %20, %2
  %8 = load i64, ptr %5, align 8
  %9 = icmp ult i64 %8, 2
  br i1 %9, label %10, label %23

10:                                               ; preds = %7
  %11 = load ptr, ptr %4, align 8
  %12 = getelementptr inbounds %"struct.nanogui::Array.2", ptr %11, i32 0, i32 0
  %13 = load i64, ptr %5, align 8
  %14 = getelementptr inbounds [2 x i32], ptr %12, i64 0, i64 %13
  %15 = load i32, ptr %14, align 4
  %16 = sitofp i32 %15 to float
  %17 = getelementptr inbounds %"struct.nanogui::Array.40", ptr %6, i32 0, i32 0
  %18 = load i64, ptr %5, align 8
  %19 = getelementptr inbounds [2 x float], ptr %17, i64 0, i64 %18
  store float %16, ptr %19, align 4
  br label %20

20:                                               ; preds = %10
  %21 = load i64, ptr %5, align 8
  %22 = add i64 %21, 1
  store i64 %22, ptr %5, align 8
  br label %7, !llvm.loop !8

23:                                               ; preds = %7
  ret void
}

; Function Attrs: mustprogress nounwind uwtable
define linkonce_odr hidden noundef float @_ZNSt3__16__math4log2B8ne190000Ef(float noundef %0) #1 comdat {
  %2 = alloca float, align 4
  store float %0, ptr %2, align 4
  %3 = load float, ptr %2, align 4
  %4 = call float @log2f(float noundef %3) #12
  ret float %4
}

; Function Attrs: mustprogress nounwind uwtable
define linkonce_odr dso_local noundef ptr @_ZNK7nanogui6Screen11glfw_windowEv(ptr noundef nonnull align 16 dereferenceable(384) %0) #1 comdat align 2 {
  %2 = alloca ptr, align 8
  store ptr %0, ptr %2, align 8
  %3 = load ptr, ptr %2, align 8
  %4 = getelementptr inbounds %"class.nanogui::Screen", ptr %3, i32 0, i32 1
  %5 = load ptr, ptr %4, align 8
  ret ptr %5
}

; Function Attrs: mustprogress nounwind uwtable
define linkonce_odr dso_local noundef nonnull align 4 dereferenceable(4) ptr @_ZNK7nanogui5ArrayIfLm2EE1yILm2ETnNSt3__19enable_ifIXgeT_Li2EEiE4typeELi0EEERKfv(ptr noundef nonnull align 4 dereferenceable(8) %0) #1 comdat align 2 {
  %2 = alloca ptr, align 8
  store ptr %0, ptr %2, align 8
  %3 = load ptr, ptr %2, align 8
  %4 = getelementptr inbounds %"struct.nanogui::Array.40", ptr %3, i32 0, i32 0
  %5 = getelementptr inbounds [2 x float], ptr %4, i64 0, i64 1
  ret ptr %5
}

; Function Attrs: mustprogress uwtable
define dso_local noundef zeroext i1 @_ZN3tev11ImageCanvas12scroll_eventERKN7nanogui5ArrayIiLm2EEERKNS2_IfLm2EEE(ptr noundef nonnull align 8 dereferenceable(376) %0, ptr noundef nonnull align 4 dereferenceable(8) %1, ptr noundef nonnull align 4 dereferenceable(8) %2) unnamed_addr #4 align 2 {
  %4 = alloca i1, align 1
  %5 = alloca ptr, align 8
  %6 = alloca ptr, align 8
  %7 = alloca ptr, align 8
  %8 = alloca float, align 4
  %9 = alloca ptr, align 8
  %10 = alloca %"struct.nanogui::Array.40", align 4
  store ptr %0, ptr %5, align 8
  store ptr %1, ptr %6, align 8
  store ptr %2, ptr %7, align 8
  %11 = load ptr, ptr %5, align 8
  %12 = load ptr, ptr %6, align 8
  %13 = load ptr, ptr %7, align 8
  %14 = call noundef zeroext i1 @_ZN7nanogui6Widget12scroll_eventERKNS_5ArrayIiLm2EEERKNS1_IfLm2EEE(ptr noundef nonnull align 8 dereferenceable(132) %11, ptr noundef nonnull align 4 dereferenceable(8) %12, ptr noundef nonnull align 4 dereferenceable(8) %13)
  br i1 %14, label %15, label %16

15:                                               ; preds = %3
  store i1 true, ptr %4, align 1
  br label %48

16:                                               ; preds = %3
  %17 = load ptr, ptr %7, align 8
  %18 = call noundef nonnull align 4 dereferenceable(4) ptr @_ZNK7nanogui5ArrayIfLm2EE1yILm2ETnNSt3__19enable_ifIXgeT_Li2EEiE4typeELi0EEERKfv(ptr noundef nonnull align 4 dereferenceable(8) %17)
  %19 = load float, ptr %18, align 4
  store float %19, ptr %8, align 4
  %20 = call noundef ptr @_ZN7nanogui6Widget6screenEv(ptr noundef nonnull align 8 dereferenceable(132) %11)
  %21 = call noundef ptr @_ZNK7nanogui6Screen11glfw_windowEv(ptr noundef nonnull align 16 dereferenceable(384) %20)
  store ptr %21, ptr %9, align 8
  %22 = load ptr, ptr %9, align 8
  %23 = call i32 @glfwGetKey(ptr noundef %22, i32 noundef 340)
  %24 = icmp ne i32 %23, 0
  br i1 %24, label %29, label %25

25:                                               ; preds = %16
  %26 = load ptr, ptr %9, align 8
  %27 = call i32 @glfwGetKey(ptr noundef %26, i32 noundef 344)
  %28 = icmp ne i32 %27, 0
  br i1 %28, label %29, label %32

29:                                               ; preds = %25, %16
  %30 = load float, ptr %8, align 4
  %31 = fdiv float %30, 1.000000e+01
  store float %31, ptr %8, align 4
  br label %45

32:                                               ; preds = %25
  %33 = load ptr, ptr %9, align 8
  %34 = call i32 @glfwGetKey(ptr noundef %33, i32 noundef 341)
  %35 = icmp ne i32 %34, 0
  br i1 %35, label %40, label %36

36:                                               ; preds = %32
  %37 = load ptr, ptr %9, align 8
  %38 = call i32 @glfwGetKey(ptr noundef %37, i32 noundef 345)
  %39 = icmp ne i32 %38, 0
  br i1 %39, label %40, label %44

40:                                               ; preds = %36, %32
  %41 = call noundef float @_ZNSt3__16__math4log2B8ne190000Ef(float noundef 0x3FF19999A0000000) #12
  %42 = load float, ptr %8, align 4
  %43 = fdiv float %42, %41
  store float %43, ptr %8, align 4
  br label %44

44:                                               ; preds = %40, %36
  br label %45

45:                                               ; preds = %44, %29
  %46 = load float, ptr %8, align 4
  %47 = load ptr, ptr %6, align 8
  call void @_ZN7nanogui5ArrayIfLm2EEC2IiEERKNS0_IT_Lm2EEE(ptr noundef nonnull align 4 dereferenceable(8) %10, ptr noundef nonnull align 4 dereferenceable(8) %47)
  call void @_ZN3tev11ImageCanvas5scaleEfRKN7nanogui5ArrayIfLm2EEE(ptr noundef nonnull align 8 dereferenceable(376) %11, float noundef %46, ptr noundef nonnull align 4 dereferenceable(8) %10)
  store i1 true, ptr %4, align 1
  br label %48

48:                                               ; preds = %45, %15
  %49 = load i1, ptr %4, align 1
  ret i1 %49
}