; Function Attrs: mustprogress uwtable
define dso_local noundef zeroext i1 @_ZN3tev11ImageCanvas12scroll_eventERKN7nanogui5ArrayIiLm2EEERKNS2_IfLm2EEE(ptr noundef nonnull align 8 dereferenceable(376) %0, ptr noundef nonnull align 4 dereferenceable(8) %1, ptr noundef nonnull align 4 dereferenceable(8) %2) unnamed_addr #3 align 2 {
  %4 = alloca %"struct.nanogui::Array.40", align 8
  %5 = tail call noundef zeroext i1 @_ZN7nanogui6Widget12scroll_eventERKNS_5ArrayIiLm2EEERKNS1_IfLm2EEE(ptr noundef nonnull align 8 dereferenceable(132) %0, ptr noundef nonnull align 4 dereferenceable(8) %1, ptr noundef nonnull align 4 dereferenceable(8) %2)
  br i1 %5, label %25, label %6

6:                                                ; preds = %3
  %7 = getelementptr inbounds i8, ptr %2, i64 4
  %8 = load float, ptr %7, align 4
  %9 = tail call noundef ptr @_ZN7nanogui6Widget6screenEv(ptr noundef nonnull align 8 dereferenceable(132) %0)
  %10 = getelementptr inbounds i8, ptr %9, i64 136
  %11 = load ptr, ptr %10, align 8
  %12 = tail call i32 @glfwGetKey(ptr noundef %11, i32 noundef 340)
  %.not = icmp eq i32 %12, 0
  br i1 %.not, label %13, label %15

13:                                               ; preds = %6
  %14 = tail call i32 @glfwGetKey(ptr noundef %11, i32 noundef 344)
  %.not14 = icmp eq i32 %14, 0
  br i1 %.not14, label %17, label %15

15:                                               ; preds = %13, %6
  %16 = fdiv float %8, 1.000000e+01
  br label %_ZN7nanogui5ArrayIfLm2EEC2IiEERKNS0_IT_Lm2EEE.exit.critedge

17:                                               ; preds = %13
  %18 = tail call i32 @glfwGetKey(ptr noundef %11, i32 noundef 341)
  %.not15 = icmp eq i32 %18, 0
  br i1 %.not15, label %19, label %21

19:                                               ; preds = %17
  %20 = tail call i32 @glfwGetKey(ptr noundef %11, i32 noundef 345)
  %.not16 = icmp eq i32 %20, 0
  br i1 %.not16, label %_ZN7nanogui5ArrayIfLm2EEC2IiEERKNS0_IT_Lm2EEE.exit.critedge, label %21

21:                                               ; preds = %19, %17
  %22 = fdiv float %8, 0x3FC199B760000000
  br label %_ZN7nanogui5ArrayIfLm2EEC2IiEERKNS0_IT_Lm2EEE.exit.critedge

_ZN7nanogui5ArrayIfLm2EEC2IiEERKNS0_IT_Lm2EEE.exit.critedge: ; preds = %19, %21, %15
  %.013 = phi float [ %16, %15 ], [ %22, %21 ], [ %8, %19 ]
  %23 = load <2 x i32>, ptr %1, align 4
  %24 = sitofp <2 x i32> %23 to <2 x float>
  store <2 x float> %24, ptr %4, align 8
  call void @_ZN3tev11ImageCanvas5scaleEfRKN7nanogui5ArrayIfLm2EEE(ptr noundef nonnull align 8 dereferenceable(376) %0, float noundef %.013, ptr noundef nonnull align 4 dereferenceable(8) %4)
  br label %25

25:                                               ; preds = %3, %_ZN7nanogui5ArrayIfLm2EEC2IiEERKNS0_IT_Lm2EEE.exit.critedge
  ret i1 true
}